; Function Attrs: mustprogress uwtable
define void @_ZN8LightGBM13DCGCalculator4InitERKSt6vectorIdSaIdEE(ptr noundef nonnull readonly align 8 captures(none) dereferenceable(24) %0) local_unnamed_addr #5 align 2 personality ptr @__gxx_personality_v0 {
  %2 = getelementptr inbounds nuw i8, ptr %0, i64 8
  %3 = load ptr, ptr %2, align 8, !tbaa !36
  %4 = load ptr, ptr %0, align 8, !tbaa !4
  %5 = ptrtoint ptr %3 to i64
  %6 = ptrtoint ptr %4 to i64
  %7 = sub i64 %5, %6
  %8 = ashr exact i64 %7, 3
  %9 = load ptr, ptr getelementptr inbounds nuw (i8, ptr @_ZN8LightGBM13DCGCalculator11label_gain_E, i64 8), align 8, !tbaa !36
  %10 = load ptr, ptr @_ZN8LightGBM13DCGCalculator11label_gain_E, align 8, !tbaa !4
  %11 = ptrtoint ptr %9 to i64
  %12 = ptrtoint ptr %10 to i64
  %13 = sub i64 %11, %12
  %14 = ashr exact i64 %13, 3
  %15 = icmp ugt i64 %8, %14
  br i1 %15, label %16, label %18

16:                                               ; preds = %1
  %17 = sub nuw nsw i64 %8, %14
  tail call void @_ZNSt6vectorIdSaIdEE17_M_default_appendEm(ptr noundef nonnull align 8 dereferenceable(24) @_ZN8LightGBM13DCGCalculator11label_gain_E, i64 noundef %17)
  %.pre = load ptr, ptr %0, align 8, !tbaa !4
  %.pre19 = ptrtoint ptr %.pre to i64
  br label %_ZNSt6vectorIdSaIdEE6resizeEm.exit

18:                                               ; preds = %1
  %19 = icmp ult i64 %8, %14
  br i1 %19, label %20, label %_ZNSt6vectorIdSaIdEE6resizeEm.exit

20:                                               ; preds = %18
  %21 = getelementptr inbounds nuw i8, ptr %10, i64 %7
  %.not.i.i = icmp eq ptr %9, %21
  br i1 %.not.i.i, label %_ZNSt6vectorIdSaIdEE6resizeEm.exit, label %22

22:                                               ; preds = %20
  store ptr %21, ptr getelementptr inbounds nuw (i8, ptr @_ZN8LightGBM13DCGCalculator11label_gain_E, i64 8), align 8, !tbaa !36
  br label %_ZNSt6vectorIdSaIdEE6resizeEm.exit

_ZNSt6vectorIdSaIdEE6resizeEm.exit:               ; preds = %16, %18, %20, %22
  %.pre-phi = phi i64 [ %.pre19, %16 ], [ %6, %18 ], [ %6, %20 ], [ %6, %22 ]
  %23 = phi ptr [ %.pre, %16 ], [ %4, %18 ], [ %4, %20 ], [ %4, %22 ]
  %24 = load ptr, ptr %2, align 8, !tbaa !36
  %.not15 = icmp eq ptr %24, %23
  br i1 %.not15, label %._crit_edge, label %.lr.ph

.lr.ph:                                           ; preds = %_ZNSt6vectorIdSaIdEE6resizeEm.exit
  %25 = ptrtoint ptr %24 to i64
  %26 = sub i64 %25, %.pre-phi
  %27 = ashr exact i64 %26, 3
  %28 = load ptr, ptr @_ZN8LightGBM13DCGCalculator11label_gain_E, align 8, !tbaa !4
  %umax = tail call i64 @llvm.umax.i64(i64 %27, i64 1)
  br label %43

._crit_edge:                                      ; preds = %43, %_ZNSt6vectorIdSaIdEE6resizeEm.exit
  %29 = load ptr, ptr getelementptr inbounds nuw (i8, ptr @_ZN8LightGBM13DCGCalculator9discount_E, i64 8), align 8, !tbaa !36
  %30 = load ptr, ptr @_ZN8LightGBM13DCGCalculator9discount_E, align 8, !tbaa !4
  %31 = ptrtoint ptr %29 to i64
  %32 = ptrtoint ptr %30 to i64
  %33 = sub i64 %31, %32
  %34 = ashr exact i64 %33, 3
  %35 = icmp ult i64 %34, 10000
  br i1 %35, label %36, label %38

36:                                               ; preds = %._crit_edge
  %37 = sub nuw nsw i64 10000, %34
  tail call void @_ZNSt6vectorIdSaIdEE17_M_default_appendEm(ptr noundef nonnull align 8 dereferenceable(24) @_ZN8LightGBM13DCGCalculator9discount_E, i64 noundef %37)
  %.pre18 = load ptr, ptr @_ZN8LightGBM13DCGCalculator9discount_E, align 8, !tbaa !4
  br label %_ZNSt6vectorIdSaIdEE6resizeEm.exit12

38:                                               ; preds = %._crit_edge
  %.not = icmp eq i64 %33, 80000
  br i1 %.not, label %_ZNSt6vectorIdSaIdEE6resizeEm.exit12, label %39

39:                                               ; preds = %38
  %40 = getelementptr inbounds nuw i8, ptr %30, i64 80000
  %.not.i.i11 = icmp eq ptr %29, %40
  br i1 %.not.i.i11, label %_ZNSt6vectorIdSaIdEE6resizeEm.exit12, label %41

41:                                               ; preds = %39
  store ptr %40, ptr getelementptr inbounds nuw (i8, ptr @_ZN8LightGBM13DCGCalculator9discount_E, i64 8), align 8, !tbaa !36
  br label %_ZNSt6vectorIdSaIdEE6resizeEm.exit12

_ZNSt6vectorIdSaIdEE6resizeEm.exit12:             ; preds = %36, %38, %39, %41
  %42 = phi ptr [ %.pre18, %36 ], [ %30, %38 ], [ %30, %39 ], [ %30, %41 ]
  br label %49

43:                                               ; preds = %.lr.ph, %43
  %.01013 = phi i64 [ 0, %.lr.ph ], [ %47, %43 ]
  %44 = getelementptr inbounds nuw double, ptr %23, i64 %.01013
  %45 = load double, ptr %44, align 8, !tbaa !34
  %46 = getelementptr inbounds nuw double, ptr %28, i64 %.01013
  store double %45, ptr %46, align 8, !tbaa !34
  %47 = add nuw i64 %.01013, 1
  %exitcond.not = icmp eq i64 %47, %umax
  br i1 %exitcond.not, label %._crit_edge, label %43, !llvm.loop !38

48:                                               ; preds = %49
  ret void

49:                                               ; preds = %_ZNSt6vectorIdSaIdEE6resizeEm.exit12, %49
  %indvars.iv = phi i64 [ 0, %_ZNSt6vectorIdSaIdEE6resizeEm.exit12 ], [ %indvars.iv.next, %49 ]
  %50 = trunc i64 %indvars.iv to i32
  %51 = add i32 %50, 2
  %52 = uitofp nneg i32 %51 to double
  %53 = tail call double @log2(double noundef %52) #26, !tbaa !14
  %54 = fdiv double 1.000000e+00, %53
  %55 = getelementptr inbounds nuw double, ptr %42, i64 %indvars.iv
  store double %54, ptr %55, align 8, !tbaa !34
  %indvars.iv.next = add nuw nsw i64 %indvars.iv, 1
  %exitcond17.not = icmp eq i64 %indvars.iv.next, 10000
  br i1 %exitcond17.not, label %48, label %49, !llvm.loop !39
}